target datalayout = "e-m:e-p270:32:32-p271:32:32-p272:64:64-i64:64-i128:128-f80:128-n8:16:32:64-S128"
target triple = "x86_64-pc-linux-gnu"

%struct.AVTXContext = type { i32, i32, ptr, ptr, ptr, ptr, [4 x ptr], i32, [4 x ptr], ptr, i32, i64, i32, float, double, ptr }
%struct.FFTXCodelet = type { ptr, ptr, i32, i64, [16 x i32], i32, i32, i32, ptr, ptr, i32, i32 }

; Function Attrs: cold nounwind optsize uwtable
define internal i32 @ff_tx_dcstI_init_double_c(ptr noundef %0, ptr noundef %1, i64 noundef %2, ptr noundef %3, i32 noundef %4, i32 noundef %5, ptr noundef %6) #0 {
  %8 = alloca i32, align 4
  %9 = alloca ptr, align 8
  %10 = alloca ptr, align 8
  %11 = alloca i64, align 8
  %12 = alloca ptr, align 8
  %13 = alloca i32, align 4
  %14 = alloca i32, align 4
  %15 = alloca ptr, align 8
  %16 = alloca i32, align 4
  %17 = alloca double, align 8
  %18 = alloca i32, align 4
  store ptr %0, ptr %9, align 8, !tbaa !17
  store ptr %1, ptr %10, align 8, !tbaa !60
  store i64 %2, ptr %11, align 8, !tbaa !30
  store ptr %3, ptr %12, align 8, !tbaa !61
  store i32 %4, ptr %13, align 4, !tbaa !4
  store i32 %5, ptr %14, align 4, !tbaa !4
  store ptr %6, ptr %15, align 8, !tbaa !8
  call void @llvm.lifetime.start.p0(i64 4, ptr %16) #10
  call void @llvm.lifetime.start.p0(i64 8, ptr %17) #10
  %19 = load ptr, ptr %15, align 8, !tbaa !8
  %20 = load double, ptr %19, align 8, !tbaa !29
  store double %20, ptr %17, align 8, !tbaa !29
  %21 = load i32, ptr %14, align 4, !tbaa !4
  %22 = icmp ne i32 %21, 0
  br i1 %22, label %23, label %32

23:                                               ; preds = %7
  %24 = load i32, ptr %13, align 4, !tbaa !4
  %25 = mul nsw i32 %24, 2
  store i32 %25, ptr %13, align 4, !tbaa !4
  %26 = load ptr, ptr %9, align 8, !tbaa !17
  %27 = getelementptr inbounds nuw %struct.AVTXContext, ptr %26, i32 0, i32 0
  %28 = load i32, ptr %27, align 8, !tbaa !21
  %29 = mul nsw i32 %28, 2
  store i32 %29, ptr %27, align 8, !tbaa !21
  %30 = load double, ptr %17, align 8, !tbaa !29
  %31 = fmul nsz double %30, 5.000000e-01
  store double %31, ptr %17, align 8, !tbaa !29
  br label %32

32:                                               ; preds = %23, %7
  %33 = load ptr, ptr %10, align 8, !tbaa !60
  %34 = getelementptr inbounds nuw %struct.FFTXCodelet, ptr %33, i32 0, i32 2
  %35 = load i32, ptr %34, align 8, !tbaa !167
  %36 = icmp eq i32 %35, 13
  %37 = select i1 %36, i32 8, i32 16
  %38 = sext i32 %37 to i64
  %39 = load i64, ptr %11, align 8, !tbaa !30
  %40 = or i64 %39, %38
  store i64 %40, ptr %11, align 8, !tbaa !30
  %41 = load ptr, ptr %9, align 8, !tbaa !17
  %42 = load i64, ptr %11, align 8, !tbaa !30
  %43 = load i32, ptr %13, align 4, !tbaa !4
  %44 = sub nsw i32 %43, 1
  %45 = load ptr, ptr %10, align 8, !tbaa !60
  %46 = getelementptr inbounds nuw %struct.FFTXCodelet, ptr %45, i32 0, i32 2
  %47 = load i32, ptr %46, align 8, !tbaa !167
  %48 = icmp eq i32 %47, 16
  %49 = zext i1 %48 to i32
  %50 = mul nsw i32 2, %49
  %51 = add nsw i32 %44, %50
  %52 = mul nsw i32 %51, 2
  %53 = call i32 @ff_tx_init_subtx(ptr noundef %41, i32 noundef 7, i64 noundef %42, ptr noundef null, i32 noundef %52, i32 noundef 0, ptr noundef %17)
  store i32 %53, ptr %16, align 4, !tbaa !4
  %54 = icmp ne i32 %53, 0
  br i1 %54, label %55, label %57

55:                                               ; preds = %32
  %56 = load i32, ptr %16, align 4, !tbaa !4
  store i32 %56, ptr %8, align 4
  store i32 1, ptr %18, align 4
  br label %72

57:                                               ; preds = %32
  %58 = load i32, ptr %13, align 4, !tbaa !4
  %59 = add nsw i32 %58, 1
  %60 = mul nsw i32 %59, 2
  %61 = sext i32 %60 to i64
  %62 = mul i64 %61, 8
  %63 = call noalias ptr @av_mallocz(i64 noundef %62)
  %64 = load ptr, ptr %9, align 8, !tbaa !17
  %65 = getelementptr inbounds nuw %struct.AVTXContext, ptr %64, i32 0, i32 4
  store ptr %63, ptr %65, align 8, !tbaa !66
  %66 = load ptr, ptr %9, align 8, !tbaa !17
  %67 = getelementptr inbounds nuw %struct.AVTXContext, ptr %66, i32 0, i32 4
  %68 = load ptr, ptr %67, align 8, !tbaa !66
  %69 = icmp ne ptr %68, null
  br i1 %69, label %71, label %70

70:                                               ; preds = %57
  store i32 -12, ptr %8, align 4
  store i32 1, ptr %18, align 4
  br label %72

71:                                               ; preds = %57
  store i32 0, ptr %8, align 4
  store i32 1, ptr %18, align 4
  br label %72

72:                                               ; preds = %71, %70, %55
  call void @llvm.lifetime.end.p0(i64 8, ptr %17) #10
  call void @llvm.lifetime.end.p0(i64 4, ptr %16) #10
  %73 = load i32, ptr %8, align 4
  ret i32 %73
}