; Function Attrs: cold nounwind optsize uwtable
define internal i32 @ff_tx_dcstI_init_double_c(ptr noundef %0, ptr noundef readonly captures(none) %1, i64 noundef %2, ptr readnone captures(none) %3, i32 noundef %4, i32 noundef %5, ptr noundef readonly captures(none) %6) #0 {
  %8 = alloca double, align 8
  call void @llvm.lifetime.start.p0(i64 8, ptr nonnull %8) #16
  %9 = load double, ptr %6, align 8, !tbaa !27
  store double %9, ptr %8, align 8, !tbaa !27
  %.not = icmp eq i32 %5, 0
  br i1 %.not, label %15, label %10

10:                                               ; preds = %7
  %11 = shl nsw i32 %4, 1
  %12 = load i32, ptr %0, align 8, !tbaa !16
  %13 = shl nsw i32 %12, 1
  store i32 %13, ptr %0, align 8, !tbaa !16
  %14 = fmul nsz double %9, 5.000000e-01
  store double %14, ptr %8, align 8, !tbaa !27
  br label %15

15:                                               ; preds = %10, %7
  %.014 = phi i32 [ %11, %10 ], [ %4, %7 ]
  %16 = getelementptr inbounds nuw i8, ptr %1, i64 16
  %17 = load i32, ptr %16, align 8, !tbaa !158
  %18 = icmp eq i32 %17, 13
  %19 = select i1 %18, i64 8, i64 16
  %20 = or i64 %19, %2
  %21 = add nsw i32 %.014, -1
  %22 = icmp eq i32 %17, 16
  %23 = select i1 %22, i32 2, i32 0
  %24 = add nsw i32 %21, %23
  %25 = shl nsw i32 %24, 1
  %26 = call i32 @ff_tx_init_subtx(ptr noundef %0, i32 noundef 7, i64 noundef %20, ptr noundef null, i32 noundef %25, i32 noundef 0, ptr noundef nonnull %8) #16
  %.not16 = icmp eq i32 %26, 0
  br i1 %.not16, label %27, label %34

27:                                               ; preds = %15
  %28 = shl i32 %.014, 1
  %29 = add i32 %28, 2
  %30 = sext i32 %29 to i64
  %31 = shl nsw i64 %30, 3
  %32 = call noalias ptr @av_mallocz(i64 noundef %31) #16
  %33 = getelementptr inbounds nuw i8, ptr %0, i64 24
  store ptr %32, ptr %33, align 8, !tbaa !56
  %.not17 = icmp eq ptr %32, null
  %. = select i1 %.not17, i32 -12, i32 0
  br label %34

34:                                               ; preds = %27, %15
  %.0 = phi i32 [ %26, %15 ], [ %., %27 ]
  call void @llvm.lifetime.end.p0(i64 8, ptr nonnull %8) #16
  ret i32 %.0
}